target datalayout = "e-m:e-p270:32:32-p271:32:32-p272:64:64-i64:64-i128:128-f80:128-n8:16:32:64-S128"
target triple = "x86_64-unknown-linux-gnu"

%"struct.icu_75::CharacterNode" = type { ptr, i16, i16, i16, i8, i8 }
%"class.icu_75::LocalPointer" = type { %"class.icu_75::LocalPointerBase" }
%"class.icu_75::LocalPointerBase" = type { ptr }
%"class.icu_75::UVector" = type { %"class.icu_75::UObject", i32, i32, ptr, ptr, ptr }
%"class.icu_75::UObject" = type { ptr }

; Function Attrs: mustprogress nounwind uwtable
define linkonce_odr void @_ZN6icu_7516LocalPointerBaseINS_7UVectorEED2Ev(ptr noundef nonnull align 8 dereferenceable(8) %this) unnamed_addr #0 comdat align 2 {
entry:
  %this.addr = alloca ptr, align 8
  store ptr %this, ptr %this.addr, align 8
  ret void
}

; Function Attrs: mustprogress nounwind uwtable
define internal noundef signext i8 @_ZL9U_SUCCESS10UErrorCode(i32 noundef %code) #0 {
entry:
  %code.addr = alloca i32, align 4
  store i32 %code, ptr %code.addr, align 4
  %0 = load i32, ptr %code.addr, align 4
  %cmp = icmp sle i32 %0, 0
  %conv = zext i1 %cmp to i8
  ret i8 %conv
}

; Function Attrs: mustprogress nounwind uwtable
define linkonce_odr void @_ZN6icu_7516LocalPointerBaseINS_7UVectorEEC2EPS1_(ptr noundef nonnull align 8 dereferenceable(8) %this, ptr noundef %p) unnamed_addr #0 comdat align 2 {
entry:
  %this.addr = alloca ptr, align 8
  %p.addr = alloca ptr, align 8
  store ptr %this, ptr %this.addr, align 8
  store ptr %p, ptr %p.addr, align 8
  %this1 = load ptr, ptr %this.addr, align 8
  %ptr = getelementptr inbounds %"class.icu_75::LocalPointerBase", ptr %this1, i32 0, i32 0
  %0 = load ptr, ptr %p.addr, align 8
  store ptr %0, ptr %ptr, align 8
  ret void
}

; Function Attrs: mustprogress nounwind uwtable
define linkonce_odr noundef ptr @_ZN6icu_7516LocalPointerBaseINS_7UVectorEE6orphanEv(ptr noundef nonnull align 8 dereferenceable(8) %this) #0 comdat align 2 {
entry:
  %this.addr = alloca ptr, align 8
  %p = alloca ptr, align 8
  store ptr %this, ptr %this.addr, align 8
  %this1 = load ptr, ptr %this.addr, align 8
  %ptr = getelementptr inbounds %"class.icu_75::LocalPointerBase", ptr %this1, i32 0, i32 0
  %0 = load ptr, ptr %ptr, align 8
  store ptr %0, ptr %p, align 8
  %ptr2 = getelementptr inbounds %"class.icu_75::LocalPointerBase", ptr %this1, i32 0, i32 0
  store ptr null, ptr %ptr2, align 8
  %1 = load ptr, ptr %p, align 8
  ret ptr %1
}

; Function Attrs: mustprogress nounwind uwtable
define linkonce_odr noundef zeroext i1 @_ZN6icu_757UVector10hasDeleterEv(ptr noundef nonnull align 8 dereferenceable(40) %this) #0 comdat align 2 {
entry:
  %this.addr = alloca ptr, align 8
  store ptr %this, ptr %this.addr, align 8
  %this1 = load ptr, ptr %this.addr, align 8
  %deleter = getelementptr inbounds %"class.icu_75::UVector", ptr %this1, i32 0, i32 4
  %0 = load ptr, ptr %deleter, align 8
  %cmp = icmp ne ptr %0, null
  ret i1 %cmp
}

; Function Attrs: mustprogress nounwind uwtable
define linkonce_odr noundef ptr @_ZNK6icu_7516LocalPointerBaseINS_7UVectorEEptEv(ptr noundef nonnull align 8 dereferenceable(8) %this) #0 comdat align 2 {
entry:
  %this.addr = alloca ptr, align 8
  store ptr %this, ptr %this.addr, align 8
  %this1 = load ptr, ptr %this.addr, align 8
  %ptr = getelementptr inbounds %"class.icu_75::LocalPointerBase", ptr %this1, i32 0, i32 0
  %0 = load ptr, ptr %ptr, align 8
  ret ptr %0
}

; Function Attrs: mustprogress nounwind uwtable
define linkonce_odr void @_ZN6icu_7512LocalPointerINS_7UVectorEED2Ev(ptr noundef nonnull align 8 dereferenceable(8) %this) unnamed_addr #0 comdat align 2 {
entry:
  %this.addr = alloca ptr, align 8
  store ptr %this, ptr %this.addr, align 8
  %this1 = load ptr, ptr %this.addr, align 8
  %ptr = getelementptr inbounds %"class.icu_75::LocalPointerBase", ptr %this1, i32 0, i32 0
  %0 = load ptr, ptr %ptr, align 8
  %isnull = icmp eq ptr %0, null
  br i1 %isnull, label %delete.end, label %delete.notnull

delete.notnull:                                   ; preds = %entry
  %vtable = load ptr, ptr %0, align 8
  %vfn = getelementptr inbounds ptr, ptr %vtable, i64 1
  %1 = load ptr, ptr %vfn, align 8
  call void %1(ptr noundef nonnull align 8 dereferenceable(40) %0) #10
  br label %delete.end

delete.end:                                       ; preds = %delete.notnull, %entry
  call void @_ZN6icu_7516LocalPointerBaseINS_7UVectorEED2Ev(ptr noundef nonnull align 8 dereferenceable(8) %this1) #10
  ret void
}

; Function Attrs: mustprogress uwtable
define linkonce_odr void @_ZN6icu_7512LocalPointerINS_7UVectorEEC2EPS1_R10UErrorCode(ptr noundef nonnull align 8 dereferenceable(8) %this, ptr noundef %p, ptr noundef nonnull align 4 dereferenceable(4) %errorCode) unnamed_addr #1 comdat align 2 {
entry:
  %this.addr = alloca ptr, align 8
  %p.addr = alloca ptr, align 8
  %errorCode.addr = alloca ptr, align 8
  store ptr %this, ptr %this.addr, align 8
  store ptr %p, ptr %p.addr, align 8
  store ptr %errorCode, ptr %errorCode.addr, align 8
  %this1 = load ptr, ptr %this.addr, align 8
  %0 = load ptr, ptr %p.addr, align 8
  call void @_ZN6icu_7516LocalPointerBaseINS_7UVectorEEC2EPS1_(ptr noundef nonnull align 8 dereferenceable(8) %this1, ptr noundef %0)
  %1 = load ptr, ptr %p.addr, align 8
  %cmp = icmp eq ptr %1, null
  br i1 %cmp, label %land.lhs.true, label %if.end

land.lhs.true:                                    ; preds = %entry
  %2 = load ptr, ptr %errorCode.addr, align 8
  %3 = load i32, ptr %2, align 4
  %call = call noundef signext i8 @_ZL9U_SUCCESS10UErrorCode(i32 noundef %3)
  %tobool = icmp ne i8 %call, 0
  br i1 %tobool, label %if.then, label %if.end

if.then:                                          ; preds = %land.lhs.true
  %4 = load ptr, ptr %errorCode.addr, align 8
  store i32 7, ptr %4, align 4
  br label %if.end

if.end:                                           ; preds = %if.then, %land.lhs.true, %entry
  ret void
}

; Function Attrs: mustprogress nounwind uwtable
define internal noundef signext i8 @_ZL9U_FAILURE10UErrorCode(i32 noundef %code) #0 {
entry:
  %code.addr = alloca i32, align 4
  store i32 %code, ptr %code.addr, align 4
  %0 = load i32, ptr %code.addr, align 4
  %cmp = icmp sgt i32 %0, 0
  %conv = zext i1 %cmp to i8
  ret i8 %conv
}

; Function Attrs: mustprogress uwtable
define void @_ZN6icu_7513CharacterNode8addValueEPvPFvS1_ER10UErrorCode(ptr noundef nonnull align 8 dereferenceable(16) %this, ptr noundef %value, ptr noundef %valueDeleter, ptr noundef nonnull align 4 dereferenceable(4) %status) #1 align 2 personality ptr @__gxx_personality_v0 {
entry:
  %this.addr = alloca ptr, align 8
  %value.addr = alloca ptr, align 8
  %valueDeleter.addr = alloca ptr, align 8
  %status.addr = alloca ptr, align 8
  %values = alloca %"class.icu_75::LocalPointer", align 8
  %saved-rvalue = alloca ptr, align 8
  %cleanup.cond = alloca i1, align 1
  %exn.slot = alloca ptr, align 8
  %ehselector.slot = alloca i32, align 4
  %cleanup.dest.slot = alloca i32, align 4
  %values40 = alloca ptr, align 8
  store ptr %this, ptr %this.addr, align 8
  store ptr %value, ptr %value.addr, align 8
  store ptr %valueDeleter, ptr %valueDeleter.addr, align 8
  store ptr %status, ptr %status.addr, align 8
  %this1 = load ptr, ptr %this.addr, align 8
  %0 = load ptr, ptr %status.addr, align 8
  %1 = load i32, ptr %0, align 4
  %call = call noundef signext i8 @_ZL9U_FAILURE10UErrorCode(i32 noundef %1)
  %tobool = icmp ne i8 %call, 0
  br i1 %tobool, label %if.then, label %if.end4

if.then:                                          ; preds = %entry
  %2 = load ptr, ptr %valueDeleter.addr, align 8
  %tobool2 = icmp ne ptr %2, null
  br i1 %tobool2, label %if.then3, label %if.end

if.then3:                                         ; preds = %if.then
  %3 = load ptr, ptr %valueDeleter.addr, align 8
  %4 = load ptr, ptr %value.addr, align 8
  call void %3(ptr noundef %4)
  br label %if.end

if.end:                                           ; preds = %if.then3, %if.then
  br label %if.end46

if.end4:                                          ; preds = %entry
  %fValues = getelementptr inbounds %"struct.icu_75::CharacterNode", ptr %this1, i32 0, i32 0
  %5 = load ptr, ptr %fValues, align 8
  %cmp = icmp eq ptr %5, null
  br i1 %cmp, label %if.then5, label %if.else

if.then5:                                         ; preds = %if.end4
  %6 = load ptr, ptr %value.addr, align 8
  %fValues6 = getelementptr inbounds %"struct.icu_75::CharacterNode", ptr %this1, i32 0, i32 0
  store ptr %6, ptr %fValues6, align 8
  br label %if.end46

if.else:                                          ; preds = %if.end4
  %fHasValuesVector = getelementptr inbounds %"struct.icu_75::CharacterNode", ptr %this1, i32 0, i32 4
  %7 = load i8, ptr %fHasValuesVector, align 2
  %tobool7 = icmp ne i8 %7, 0
  br i1 %tobool7, label %if.end39, label %if.then8

if.then8:                                         ; preds = %if.else
  %call9 = call noundef ptr @_ZN6icu_757UMemorynwEm(i64 noundef 40) #10
  %new.isnull = icmp eq ptr %call9, null
  store i1 false, ptr %cleanup.cond, align 1
  br i1 %new.isnull, label %new.cont, label %new.notnull

new.notnull:                                      ; preds = %if.then8
  store ptr %call9, ptr %saved-rvalue, align 8
  store i1 true, ptr %cleanup.cond, align 1
  %8 = load ptr, ptr %valueDeleter.addr, align 8
  %9 = load ptr, ptr %status.addr, align 8
  invoke void @_ZN6icu_757UVectorC1EPFvPvEPFa8UElementS4_EiR10UErrorCode(ptr noundef nonnull align 8 dereferenceable(40) %call9, ptr noundef %8, ptr noundef null, i32 noundef 1, ptr noundef nonnull align 4 dereferenceable(4) %9)
          to label %invoke.cont unwind label %lpad

invoke.cont:                                      ; preds = %new.notnull
  br label %new.cont

new.cont:                                         ; preds = %invoke.cont, %if.then8
  %10 = phi ptr [ %call9, %invoke.cont ], [ null, %if.then8 ]
  %11 = load ptr, ptr %status.addr, align 8
  call void @_ZN6icu_7512LocalPointerINS_7UVectorEEC2EPS1_R10UErrorCode(ptr noundef nonnull align 8 dereferenceable(8) %values, ptr noundef %10, ptr noundef nonnull align 4 dereferenceable(4) %11)
  %12 = load ptr, ptr %status.addr, align 8
  %13 = load i32, ptr %12, align 4
  %call12 = invoke noundef signext i8 @_ZL9U_FAILURE10UErrorCode(i32 noundef %13)
          to label %invoke.cont11 unwind label %lpad10

invoke.cont11:                                    ; preds = %new.cont
  %tobool13 = icmp ne i8 %call12, 0
  br i1 %tobool13, label %if.then14, label %if.end19

if.then14:                                        ; preds = %invoke.cont11
  %14 = load ptr, ptr %valueDeleter.addr, align 8
  %tobool15 = icmp ne ptr %14, null
  br i1 %tobool15, label %if.then16, label %if.end18

if.then16:                                        ; preds = %if.then14
  %15 = load ptr, ptr %valueDeleter.addr, align 8
  %16 = load ptr, ptr %value.addr, align 8
  invoke void %15(ptr noundef %16)
          to label %invoke.cont17 unwind label %lpad10

invoke.cont17:                                    ; preds = %if.then16
  br label %if.end18

lpad:                                             ; preds = %new.notnull
  %17 = landingpad { ptr, i32 }
          cleanup
  %18 = extractvalue { ptr, i32 } %17, 0
  store ptr %18, ptr %exn.slot, align 8
  %19 = extractvalue { ptr, i32 } %17, 1
  store i32 %19, ptr %ehselector.slot, align 4
  %cleanup.is_active = load i1, ptr %cleanup.cond, align 1
  br i1 %cleanup.is_active, label %cleanup.action, label %cleanup.done

cleanup.action:                                   ; preds = %lpad
  %20 = load ptr, ptr %saved-rvalue, align 8
  call void @_ZN6icu_757UMemorydlEPv(ptr noundef %20) #10
  br label %cleanup.done

cleanup.done:                                     ; preds = %cleanup.action, %lpad
  br label %eh.resume

lpad10:                                           ; preds = %if.end34, %invoke.cont30, %if.else29, %invoke.cont25, %if.then24, %invoke.cont20, %if.end19, %if.then16, %new.cont
  %21 = landingpad { ptr, i32 }
          cleanup
  %22 = extractvalue { ptr, i32 } %21, 0
  store ptr %22, ptr %exn.slot, align 8
  %23 = extractvalue { ptr, i32 } %21, 1
  store i32 %23, ptr %ehselector.slot, align 4
  call void @_ZN6icu_7512LocalPointerINS_7UVectorEED2Ev(ptr noundef nonnull align 8 dereferenceable(8) %values) #10
  br label %eh.resume

if.end18:                                         ; preds = %invoke.cont17, %if.then14
  store i32 1, ptr %cleanup.dest.slot, align 4
  br label %cleanup

if.end19:                                         ; preds = %invoke.cont11
  %call21 = invoke noundef ptr @_ZNK6icu_7516LocalPointerBaseINS_7UVectorEEptEv(ptr noundef nonnull align 8 dereferenceable(8) %values)
          to label %invoke.cont20 unwind label %lpad10

invoke.cont20:                                    ; preds = %if.end19
  %call23 = invoke noundef zeroext i1 @_ZN6icu_757UVector10hasDeleterEv(ptr noundef nonnull align 8 dereferenceable(40) %call21)
          to label %invoke.cont22 unwind label %lpad10

invoke.cont22:                                    ; preds = %invoke.cont20
  br i1 %call23, label %if.then24, label %if.else29

if.then24:                                        ; preds = %invoke.cont22
  %call26 = invoke noundef ptr @_ZNK6icu_7516LocalPointerBaseINS_7UVectorEEptEv(ptr noundef nonnull align 8 dereferenceable(8) %values)
          to label %invoke.cont25 unwind label %lpad10

invoke.cont25:                                    ; preds = %if.then24
  %fValues27 = getelementptr inbounds %"struct.icu_75::CharacterNode", ptr %this1, i32 0, i32 0
  %24 = load ptr, ptr %fValues27, align 8
  %25 = load ptr, ptr %status.addr, align 8
  invoke void @_ZN6icu_757UVector12adoptElementEPvR10UErrorCode(ptr noundef nonnull align 8 dereferenceable(40) %call26, ptr noundef %24, ptr noundef nonnull align 4 dereferenceable(4) %25)
          to label %invoke.cont28 unwind label %lpad10

invoke.cont28:                                    ; preds = %invoke.cont25
  br label %if.end34

if.else29:                                        ; preds = %invoke.cont22
  %call31 = invoke noundef ptr @_ZNK6icu_7516LocalPointerBaseINS_7UVectorEEptEv(ptr noundef nonnull align 8 dereferenceable(8) %values)
          to label %invoke.cont30 unwind label %lpad10

invoke.cont30:                                    ; preds = %if.else29
  %fValues32 = getelementptr inbounds %"struct.icu_75::CharacterNode", ptr %this1, i32 0, i32 0
  %26 = load ptr, ptr %fValues32, align 8
  %27 = load ptr, ptr %status.addr, align 8
  invoke void @_ZN6icu_757UVector10addElementEPvR10UErrorCode(ptr noundef nonnull align 8 dereferenceable(40) %call31, ptr noundef %26, ptr noundef nonnull align 4 dereferenceable(4) %27)
          to label %invoke.cont33 unwind label %lpad10

invoke.cont33:                                    ; preds = %invoke.cont30
  br label %if.end34

if.end34:                                         ; preds = %invoke.cont33, %invoke.cont28
  %call36 = invoke noundef ptr @_ZN6icu_7516LocalPointerBaseINS_7UVectorEE6orphanEv(ptr noundef nonnull align 8 dereferenceable(8) %values)
          to label %invoke.cont35 unwind label %lpad10

invoke.cont35:                                    ; preds = %if.end34
  %fValues37 = getelementptr inbounds %"struct.icu_75::CharacterNode", ptr %this1, i32 0, i32 0
  store ptr %call36, ptr %fValues37, align 8
  %fHasValuesVector38 = getelementptr inbounds %"struct.icu_75::CharacterNode", ptr %this1, i32 0, i32 4
  store i8 1, ptr %fHasValuesVector38, align 2
  store i32 0, ptr %cleanup.dest.slot, align 4
  br label %cleanup

cleanup:                                          ; preds = %invoke.cont35, %if.end18
  call void @_ZN6icu_7512LocalPointerINS_7UVectorEED2Ev(ptr noundef nonnull align 8 dereferenceable(8) %values) #10
  %cleanup.dest = load i32, ptr %cleanup.dest.slot, align 4
  switch i32 %cleanup.dest, label %unreachable [
    i32 0, label %cleanup.cont
    i32 1, label %if.end46
  ]

cleanup.cont:                                     ; preds = %cleanup
  br label %if.end39

if.end39:                                         ; preds = %cleanup.cont, %if.else
  %fValues41 = getelementptr inbounds %"struct.icu_75::CharacterNode", ptr %this1, i32 0, i32 0
  %28 = load ptr, ptr %fValues41, align 8
  store ptr %28, ptr %values40, align 8
  %29 = load ptr, ptr %values40, align 8
  %call42 = call noundef zeroext i1 @_ZN6icu_757UVector10hasDeleterEv(ptr noundef nonnull align 8 dereferenceable(40) %29)
  br i1 %call42, label %if.then43, label %if.else44

if.then43:                                        ; preds = %if.end39
  %30 = load ptr, ptr %values40, align 8
  %31 = load ptr, ptr %value.addr, align 8
  %32 = load ptr, ptr %status.addr, align 8
  call void @_ZN6icu_757UVector12adoptElementEPvR10UErrorCode(ptr noundef nonnull align 8 dereferenceable(40) %30, ptr noundef %31, ptr noundef nonnull align 4 dereferenceable(4) %32)
  br label %if.end45

if.else44:                                        ; preds = %if.end39
  %33 = load ptr, ptr %values40, align 8
  %34 = load ptr, ptr %value.addr, align 8
  %35 = load ptr, ptr %status.addr, align 8
  call void @_ZN6icu_757UVector10addElementEPvR10UErrorCode(ptr noundef nonnull align 8 dereferenceable(40) %33, ptr noundef %34, ptr noundef nonnull align 4 dereferenceable(4) %35)
  br label %if.end45

if.end45:                                         ; preds = %if.else44, %if.then43
  br label %if.end46

if.end46:                                         ; preds = %if.end45, %cleanup, %if.then5, %if.end
  ret void

eh.resume:                                        ; preds = %lpad10, %cleanup.done
  %exn = load ptr, ptr %exn.slot, align 8
  %sel = load i32, ptr %ehselector.slot, align 4
  %lpad.val = insertvalue { ptr, i32 } poison, ptr %exn, 0
  %lpad.val47 = insertvalue { ptr, i32 } %lpad.val, i32 %sel, 1
  resume { ptr, i32 } %lpad.val47

unreachable:                                      ; preds = %cleanup
  unreachable
}