; Function Attrs: mustprogress uwtable
define void @_ZN6icu_7513CharacterNode8addValueEPvPFvS1_ER10UErrorCode(ptr nocapture noundef nonnull align 8 dereferenceable(16) %this, ptr noundef %value, ptr noundef %valueDeleter, ptr noundef nonnull align 4 dereferenceable(4) %status) local_unnamed_addr #1 align 2 personality ptr @__gxx_personality_v0 {
entry:
  %0 = load i32, ptr %status, align 4
  %cmp.i = icmp slt i32 %0, 1
  br i1 %cmp.i, label %if.end4, label %if.then

if.then:                                          ; preds = %entry
  %tobool2.not = icmp eq ptr %valueDeleter, null
  br i1 %tobool2.not, label %if.end46, label %if.then3

if.then3:                                         ; preds = %if.then
  tail call void %valueDeleter(ptr noundef %value)
  br label %if.end46

if.end4:                                          ; preds = %entry
  %1 = load ptr, ptr %this, align 8
  %cmp = icmp eq ptr %1, null
  br i1 %cmp, label %if.then5, label %if.else

if.then5:                                         ; preds = %if.end4
  store ptr %value, ptr %this, align 8
  br label %if.end46

if.else:                                          ; preds = %if.end4
  %fHasValuesVector = getelementptr inbounds i8, ptr %this, i64 14
  %2 = load i8, ptr %fHasValuesVector, align 2
  %tobool7.not = icmp eq i8 %2, 0
  br i1 %tobool7.not, label %if.then8, label %if.end39

if.then8:                                         ; preds = %if.else
  %call9 = tail call noundef ptr @_ZN6icu_757UMemorynwEm(i64 noundef 40) #20
  %new.isnull = icmp eq ptr %call9, null
  br i1 %new.isnull, label %new.cont, label %new.notnull

new.notnull:                                      ; preds = %if.then8
  invoke void @_ZN6icu_757UVectorC1EPFvPvEPFa8UElementS4_EiR10UErrorCode(ptr noundef nonnull align 8 dereferenceable(40) %call9, ptr noundef %valueDeleter, ptr noundef null, i32 noundef 1, ptr noundef nonnull align 4 dereferenceable(4) %status)
          to label %new.cont.thread unwind label %lpad

new.cont.thread:                                  ; preds = %new.notnull
  %.pr = load i32, ptr %status, align 4
  %3 = icmp sgt i32 %.pr, 0
  br i1 %3, label %if.then14, label %if.end19

new.cont:                                         ; preds = %if.then8
  %4 = load i32, ptr %status, align 4
  %cmp.i.i = icmp sgt i32 %4, 0
  br i1 %cmp.i.i, label %if.then14, label %_ZN6icu_7512LocalPointerINS_7UVectorEEC2EPS1_R10UErrorCode.exit.thread

_ZN6icu_7512LocalPointerINS_7UVectorEEC2EPS1_R10UErrorCode.exit.thread: ; preds = %new.cont
  store i32 7, ptr %status, align 4
  br label %if.then14

if.then14:                                        ; preds = %new.cont, %_ZN6icu_7512LocalPointerINS_7UVectorEEC2EPS1_R10UErrorCode.exit.thread, %new.cont.thread
  %tobool15.not = icmp eq ptr %valueDeleter, null
  br i1 %tobool15.not, label %cleanup, label %if.then16

if.then16:                                        ; preds = %if.then14
  invoke void %valueDeleter(ptr noundef %value)
          to label %cleanup unwind label %lpad10

lpad:                                             ; preds = %new.notnull
  %5 = landingpad { ptr, i32 }
          cleanup
  tail call void @_ZN6icu_757UMemorydlEPv(ptr noundef nonnull %call9) #20
  br label %eh.resume

lpad10.thread:                                    ; preds = %if.else29, %if.then24
  %lpad.thr_comm = landingpad { ptr, i32 }
          cleanup
  br label %delete.notnull.i

lpad10:                                           ; preds = %if.then16
  %lpad.thr_comm.split-lp = landingpad { ptr, i32 }
          cleanup
  br i1 %new.isnull, label %eh.resume, label %delete.notnull.i

delete.notnull.i:                                 ; preds = %lpad10.thread, %lpad10
  %lpad.phi44 = phi { ptr, i32 } [ %lpad.thr_comm, %lpad10.thread ], [ %lpad.thr_comm.split-lp, %lpad10 ]
  %vtable.i = load ptr, ptr %call9, align 8
  %vfn.i = getelementptr inbounds i8, ptr %vtable.i, i64 8
  %6 = load ptr, ptr %vfn.i, align 8
  tail call void %6(ptr noundef nonnull align 8 dereferenceable(40) %call9) #20
  br label %eh.resume

if.end19:                                         ; preds = %new.cont.thread
  %deleter.i = getelementptr inbounds i8, ptr %call9, i64 24
  %7 = load ptr, ptr %deleter.i, align 8
  %cmp.i22.not = icmp eq ptr %7, null
  %8 = load ptr, ptr %this, align 8
  br i1 %cmp.i22.not, label %if.else29, label %if.then24

if.then24:                                        ; preds = %if.end19
  invoke void @_ZN6icu_757UVector12adoptElementEPvR10UErrorCode(ptr noundef nonnull align 8 dereferenceable(40) %call9, ptr noundef %8, ptr noundef nonnull align 4 dereferenceable(4) %status)
          to label %_ZN6icu_7512LocalPointerINS_7UVectorEED2Ev.exit27 unwind label %lpad10.thread

if.else29:                                        ; preds = %if.end19
  invoke void @_ZN6icu_757UVector10addElementEPvR10UErrorCode(ptr noundef nonnull align 8 dereferenceable(40) %call9, ptr noundef %8, ptr noundef nonnull align 4 dereferenceable(4) %status)
          to label %_ZN6icu_7512LocalPointerINS_7UVectorEED2Ev.exit27 unwind label %lpad10.thread

cleanup:                                          ; preds = %if.then14, %if.then16
  br i1 %new.isnull, label %if.end46, label %delete.notnull.i24

delete.notnull.i24:                               ; preds = %cleanup
  %vtable.i25 = load ptr, ptr %call9, align 8
  %vfn.i26 = getelementptr inbounds i8, ptr %vtable.i25, i64 8
  %9 = load ptr, ptr %vfn.i26, align 8
  tail call void %9(ptr noundef nonnull align 8 dereferenceable(40) %call9) #20
  br label %if.end46

_ZN6icu_7512LocalPointerINS_7UVectorEED2Ev.exit27: ; preds = %if.then24, %if.else29
  store ptr %call9, ptr %this, align 8
  store i8 1, ptr %fHasValuesVector, align 2
  br label %if.end39

if.end39:                                         ; preds = %_ZN6icu_7512LocalPointerINS_7UVectorEED2Ev.exit27, %if.else
  %10 = phi ptr [ %call9, %_ZN6icu_7512LocalPointerINS_7UVectorEED2Ev.exit27 ], [ %1, %if.else ]
  %deleter.i28 = getelementptr inbounds i8, ptr %10, i64 24
  %11 = load ptr, ptr %deleter.i28, align 8
  %cmp.i29.not = icmp eq ptr %11, null
  br i1 %cmp.i29.not, label %if.else44, label %if.then43

if.then43:                                        ; preds = %if.end39
  tail call void @_ZN6icu_757UVector12adoptElementEPvR10UErrorCode(ptr noundef nonnull align 8 dereferenceable(40) %10, ptr noundef %value, ptr noundef nonnull align 4 dereferenceable(4) %status)
  br label %if.end46

if.else44:                                        ; preds = %if.end39
  tail call void @_ZN6icu_757UVector10addElementEPvR10UErrorCode(ptr noundef nonnull align 8 dereferenceable(40) %10, ptr noundef %value, ptr noundef nonnull align 4 dereferenceable(4) %status)
  br label %if.end46

if.end46:                                         ; preds = %delete.notnull.i24, %cleanup, %if.then43, %if.else44, %if.then, %if.then3, %if.then5
  ret void

eh.resume:                                        ; preds = %delete.notnull.i, %lpad10, %lpad
  %.pn = phi { ptr, i32 } [ %5, %lpad ], [ %lpad.thr_comm.split-lp, %lpad10 ], [ %lpad.phi44, %delete.notnull.i ]
  resume { ptr, i32 } %.pn
}